; Function Attrs: mustprogress uwtable
define hidden void @_ZN4cvc58internal5proof20LfscProofPostprocessC2ERNS0_3EnvERNS1_17LfscNodeConverterE(ptr noundef nonnull align 8 dereferenceable(24) %0, ptr noundef nonnull align 8 dereferenceable(696) %1, ptr noundef nonnull align 8 dereferenceable(768) %2) unnamed_addr #3 align 2 personality ptr @__gxx_personality_v0 {
  tail call void @_ZN4cvc58internal6EnvObjC2ERNS0_3EnvE(ptr noundef nonnull align 8 dereferenceable(16) %0, ptr noundef nonnull align 8 dereferenceable(696) %1)
  store ptr getelementptr inbounds nuw inrange(-16, 16) (i8, ptr @_ZTVN4cvc58internal5proof20LfscProofPostprocessE, i64 16), ptr %0, align 8, !tbaa !3
  %4 = tail call noalias noundef nonnull dereferenceable(104) ptr @_Znwm(i64 noundef 104) #25
  invoke void @_ZN4cvc58internal6EnvObjC2ERNS0_3EnvE(ptr noundef nonnull align 8 dereferenceable(104) %4, ptr noundef nonnull align 8 dereferenceable(696) %1)
          to label %.noexc unwind label %22

.noexc:                                           ; preds = %3
  %5 = getelementptr inbounds nuw i8, ptr %4, i64 16
  invoke void @_ZN4cvc58internal24ProofNodeUpdaterCallbackC2Ev(ptr noundef nonnull align 8 dereferenceable(8) %5)
          to label %.noexc7 unwind label %22

.noexc7:                                          ; preds = %.noexc
  store ptr getelementptr inbounds nuw inrange(-16, 32) (i8, ptr @_ZTVN4cvc58internal5proof28LfscProofPostprocessCallbackE, i64 16), ptr %4, align 8, !tbaa !3
  store ptr getelementptr inbounds nuw inrange(-16, 56) (i8, ptr @_ZTVN4cvc58internal5proof28LfscProofPostprocessCallbackE, i64 64), ptr %5, align 8, !tbaa !3
  %6 = invoke noundef ptr @_ZN4cvc58internal3Env19getProofNodeManagerEv(ptr noundef nonnull align 8 dereferenceable(696) %1)
          to label %7 unwind label %9

7:                                                ; preds = %.noexc7
  %8 = invoke noundef ptr @_ZNK4cvc58internal16ProofNodeManager10getCheckerEv(ptr noundef nonnull align 8 dereferenceable(32) %6)
          to label %11 unwind label %9

9:                                                ; preds = %7, %.noexc7
  %10 = landingpad { ptr, i32 }
          cleanup
  tail call void @_ZN4cvc58internal24ProofNodeUpdaterCallbackD2Ev(ptr noundef nonnull align 8 dereferenceable(8) %5) #23
  br label %.body

11:                                               ; preds = %7
  %12 = getelementptr inbounds nuw i8, ptr %4, i64 24
  store ptr %8, ptr %12, align 8, !tbaa !6
  %13 = getelementptr inbounds nuw i8, ptr %4, i64 32
  store ptr %2, ptr %13, align 8, !tbaa !23
  %14 = getelementptr inbounds nuw i8, ptr %4, i64 40
  store i8 0, ptr %14, align 8, !tbaa !24
  %15 = getelementptr inbounds nuw i8, ptr %4, i64 48
  %16 = getelementptr inbounds nuw i8, ptr %4, i64 96
  store ptr %16, ptr %15, align 8, !tbaa !25
  %17 = getelementptr inbounds nuw i8, ptr %4, i64 56
  store i64 1, ptr %17, align 8, !tbaa !26
  %18 = getelementptr inbounds nuw i8, ptr %4, i64 64
  %19 = getelementptr inbounds nuw i8, ptr %4, i64 80
  tail call void @llvm.memset.p0.i64(ptr noundef nonnull align 8 dereferenceable(16) %18, i8 0, i64 16, i1 false)
  store float 1.000000e+00, ptr %19, align 8, !tbaa !27
  %20 = getelementptr inbounds nuw i8, ptr %4, i64 88
  tail call void @llvm.memset.p0.i64(ptr noundef nonnull align 8 dereferenceable(16) %20, i8 0, i64 16, i1 false)
  %21 = getelementptr inbounds nuw i8, ptr %0, i64 16
  store ptr %4, ptr %21, align 8, !tbaa !329
  ret void

22:                                               ; preds = %.noexc, %3
  %23 = landingpad { ptr, i32 }
          cleanup
  br label %.body

.body:                                            ; preds = %9, %22
  %eh.lpad-body = phi { ptr, i32 } [ %23, %22 ], [ %10, %9 ]
  tail call void @_ZdlPvm(ptr noundef nonnull %4, i64 noundef 104) #26
  resume { ptr, i32 } %eh.lpad-body
}